target datalayout = "e-m:e-p270:32:32-p271:32:32-p272:64:64-i64:64-i128:128-f80:128-n8:16:32:64-S128"
target triple = "x86_64-pc-linux-gnu"

%struct.CP_ENTRY = type { ptr, ptr, i32, i64, i8, i8, i8 }

@.str.9 = private unnamed_addr constant [7 x i8] c"nPING\0A\00", align 1
@.str.10 = private unnamed_addr constant [6 x i8] c"PONG\0A\00", align 1

; Function Attrs: nounwind uwtable
define dso_local void @nc_ping_entry(ptr noundef %0) #0 {
  %2 = alloca ptr, align 8
  %3 = alloca i32, align 4
  %4 = alloca ptr, align 8
  store ptr %0, ptr %2, align 8
  %5 = load ptr, ptr %2, align 8
  %6 = call i32 @nc_connect_entry(ptr noundef %5)
  store i32 %6, ptr %3, align 4
  %7 = load i32, ptr %3, align 4
  %8 = icmp sge i32 %7, 0
  br i1 %8, label %9, label %31

9:                                                ; preds = %1
  %10 = load i32, ptr %3, align 4
  %11 = call i32 @nc_send(i32 noundef %10, ptr noundef @.str.9, i64 noundef 6)
  %12 = icmp ne i32 %11, 0
  br i1 %12, label %28, label %13

13:                                               ; preds = %9
  %14 = load i32, ptr %3, align 4
  %15 = call ptr @nc_recv(i32 noundef %14)
  store ptr %15, ptr %4, align 8
  %16 = icmp ne ptr %15, null
  br i1 %16, label %17, label %28

17:                                               ; preds = %13
  %18 = load ptr, ptr %4, align 8
  %19 = call i32 @strcmp(ptr noundef %18, ptr noundef @.str.10) #11
  %20 = icmp ne i32 %19, 0
  %21 = zext i1 %20 to i32
  %22 = trunc i32 %21 to i8
  %23 = load ptr, ptr %2, align 8
  %24 = getelementptr inbounds %struct.CP_ENTRY, ptr %23, i32 0, i32 5
  store i8 %22, ptr %24, align 1
  %25 = load ptr, ptr %4, align 8
  call void @free(ptr noundef %25) #8
  %26 = load i32, ptr %3, align 4
  %27 = call i32 @close(i32 noundef %26)
  br label %34

28:                                               ; preds = %13, %9
  %29 = load i32, ptr %3, align 4
  %30 = call i32 @close(i32 noundef %29)
  br label %31

31:                                               ; preds = %28, %1
  %32 = load ptr, ptr %2, align 8
  %33 = getelementptr inbounds %struct.CP_ENTRY, ptr %32, i32 0, i32 5
  store i8 1, ptr %33, align 1
  br label %34

34:                                               ; preds = %31, %17
  ret void
}