; Function Attrs: nounwind uwtable
define dso_local void @nc_ping_entry(ptr nocapture noundef %0) local_unnamed_addr #0 {
  %2 = tail call i32 @nc_connect_entry(ptr noundef %0)
  %3 = icmp sgt i32 %2, -1
  br i1 %3, label %4, label %16

4:                                                ; preds = %1
  %5 = tail call i32 @nc_send(i32 noundef %2, ptr noundef nonnull @.str.9, i64 noundef 6), !range !5
  %.not = icmp eq i32 %5, 0
  br i1 %.not, label %6, label %14

6:                                                ; preds = %4
  %7 = tail call ptr @nc_recv(i32 noundef %2)
  %.not10 = icmp eq ptr %7, null
  br i1 %.not10, label %14, label %8

8:                                                ; preds = %6
  %9 = tail call i32 @strcmp(ptr noundef nonnull dereferenceable(1) %7, ptr noundef nonnull dereferenceable(6) @.str.10) #16
  %10 = icmp ne i32 %9, 0
  %11 = zext i1 %10 to i8
  %12 = getelementptr inbounds i8, ptr %0, i64 33
  store i8 %11, ptr %12, align 1
  tail call void @free(ptr noundef nonnull %7) #13
  %13 = tail call i32 @close(i32 noundef %2) #13
  br label %18

14:                                               ; preds = %6, %4
  %15 = tail call i32 @close(i32 noundef %2) #13
  br label %16

16:                                               ; preds = %14, %1
  %17 = getelementptr inbounds i8, ptr %0, i64 33
  store i8 1, ptr %17, align 1
  br label %18

18:                                               ; preds = %16, %8
  ret void
}